; Function Attrs: nounwind uwtable
define internal fastcc i32 @evp_pkey_ctx_set1_octet_string(ptr noundef %0, i32 noundef range(i32 0, 2) %1, ptr noundef %2, i32 noundef range(i32 4, 2049) %3, i32 noundef range(i32 6, 4106) %4, ptr noundef %5, i32 noundef %6) unnamed_addr #0 {
  %8 = alloca [2 x %struct.ossl_param_st], align 16
  %9 = alloca %struct.ossl_param_st, align 8
  call void @llvm.lifetime.start.p0(i64 80, ptr nonnull %8) #10
  %10 = icmp eq ptr %0, null
  br i1 %10, label %15, label %11

11:                                               ; preds = %7
  %12 = load i32, ptr %0, align 8, !tbaa !15
  %13 = and i32 %12, %3
  %14 = icmp eq i32 %13, 0
  br i1 %14, label %15, label %16

15:                                               ; preds = %11, %7
  tail call void @ERR_new() #10
  tail call void @ERR_set_debug(ptr noundef nonnull @.str, i32 noundef 991, ptr noundef nonnull @__func__.evp_pkey_ctx_set1_octet_string) #10
  tail call void (i32, i32, ptr, ...) @ERR_set_error(i32 noundef 6, i32 noundef 147, ptr noundef null) #10
  br label %EVP_PKEY_CTX_ctrl.exit

16:                                               ; preds = %11
  %.not = icmp eq i32 %1, 0
  br i1 %.not, label %32, label %17

17:                                               ; preds = %16
  %18 = tail call i32 @ERR_set_mark() #10
  %19 = sext i32 %6 to i64
  %20 = tail call fastcc i32 @evp_pkey_ctx_store_cached_data(ptr noundef nonnull %0, i32 noundef -1, i32 noundef %3, i32 noundef %4, ptr noundef null, ptr noundef %5, i64 noundef %19)
  %21 = icmp eq i32 %20, -2
  br i1 %21, label %22, label %24

22:                                               ; preds = %17
  %23 = tail call i32 @ERR_pop_to_mark() #10
  br label %30

24:                                               ; preds = %17
  %25 = tail call i32 @ERR_clear_last_mark() #10
  %26 = icmp slt i32 %20, 1
  br i1 %26, label %EVP_PKEY_CTX_ctrl.exit, label %27

27:                                               ; preds = %24
  %28 = load i32, ptr %0, align 8, !tbaa !15
  %29 = icmp eq i32 %28, 0
  br i1 %29, label %EVP_PKEY_CTX_ctrl.exit, label %30

30:                                               ; preds = %27, %22
  %31 = tail call fastcc i32 @evp_pkey_ctx_ctrl_int(ptr noundef nonnull %0, i32 noundef -1, i32 noundef %3, i32 noundef %4, i32 noundef %6, ptr noundef %5)
  br label %EVP_PKEY_CTX_ctrl.exit

32:                                               ; preds = %16
  %33 = icmp slt i32 %6, 0
  br i1 %33, label %34, label %35

34:                                               ; preds = %32
  tail call void @ERR_new() #10
  tail call void @ERR_set_debug(ptr noundef nonnull @.str, i32 noundef 1002, ptr noundef nonnull @__func__.evp_pkey_ctx_set1_octet_string) #10
  tail call void (i32, i32, ptr, ...) @ERR_set_error(i32 noundef 6, i32 noundef 221, ptr noundef null) #10
  br label %EVP_PKEY_CTX_ctrl.exit

35:                                               ; preds = %32
  %36 = getelementptr inbounds nuw i8, ptr %8, i64 40
  %37 = zext nneg i32 %6 to i64
  call void @OSSL_PARAM_construct_octet_string(ptr dead_on_unwind nonnull writable sret(%struct.ossl_param_st) align 8 %8, ptr noundef %2, ptr noundef %5, i64 noundef %37) #10
  call void @llvm.lifetime.start.p0(i64 40, ptr nonnull %9) #10
  call void @OSSL_PARAM_construct_end(ptr dead_on_unwind nonnull writable sret(%struct.ossl_param_st) align 8 %9) #10
  call void @llvm.memcpy.p0.p0.i64(ptr noundef nonnull align 8 dereferenceable(40) %36, ptr noundef nonnull align 8 dereferenceable(40) %9, i64 40, i1 false), !tbaa.struct !98
  call void @llvm.lifetime.end.p0(i64 40, ptr nonnull %9) #10
  %38 = call i32 @EVP_PKEY_CTX_set_params(ptr noundef nonnull %0, ptr noundef nonnull %8)
  br label %EVP_PKEY_CTX_ctrl.exit

EVP_PKEY_CTX_ctrl.exit:                           ; preds = %30, %27, %24, %35, %34, %15
  %.0 = phi i32 [ -2, %15 ], [ 0, %34 ], [ %38, %35 ], [ %31, %30 ], [ 1, %27 ], [ %20, %24 ]
  call void @llvm.lifetime.end.p0(i64 80, ptr nonnull %8) #10
  ret i32 %.0
}